target datalayout = "e-m:e-p270:32:32-p271:32:32-p272:64:64-i64:64-i128:128-f80:128-n8:16:32:64-S128"
target triple = "x86_64-pc-linux-gnu"

%struct.RelOptInfo = type { i32, i32, ptr, double, i8, i8, i8, ptr, ptr, ptr, ptr, ptr, ptr, ptr, ptr, ptr, ptr, i32, i32, i32, i16, i16, ptr, ptr, ptr, ptr, ptr, ptr, ptr, ptr, i32, double, double, ptr, ptr, ptr, i32, i32, i32, i32, i8, ptr, ptr, ptr, ptr, ptr, %struct.QualCost, i32, ptr, i8, i8, ptr, ptr, ptr, ptr, i32, ptr, i8, ptr, ptr, ptr, ptr, ptr, ptr }
%struct.QualCost = type { double, double }

; Function Attrs: nounwind uwtable
define dso_local ptr @min_join_parameterization(ptr noundef %0, ptr noundef %1, ptr noundef %2, ptr noundef %3) #0 {
  %5 = alloca ptr, align 8
  %6 = alloca ptr, align 8
  %7 = alloca ptr, align 8
  %8 = alloca ptr, align 8
  %9 = alloca ptr, align 8
  store ptr %0, ptr %5, align 8
  store ptr %1, ptr %6, align 8
  store ptr %2, ptr %7, align 8
  store ptr %3, ptr %8, align 8
  call void @llvm.lifetime.start.p0(i64 8, ptr %9) #6
  %10 = load ptr, ptr %7, align 8
  %11 = getelementptr inbounds nuw %struct.RelOptInfo, ptr %10, i32 0, i32 16
  %12 = load ptr, ptr %11, align 8
  %13 = load ptr, ptr %8, align 8
  %14 = getelementptr inbounds nuw %struct.RelOptInfo, ptr %13, i32 0, i32 16
  %15 = load ptr, ptr %14, align 8
  %16 = call ptr @bms_union(ptr noundef %12, ptr noundef %15)
  store ptr %16, ptr %9, align 8
  %17 = load ptr, ptr %9, align 8
  %18 = load ptr, ptr %6, align 8
  %19 = call ptr @bms_del_members(ptr noundef %17, ptr noundef %18)
  store ptr %19, ptr %9, align 8
  %20 = load ptr, ptr %9, align 8
  call void @llvm.lifetime.end.p0(i64 8, ptr %9) #6
  ret ptr %20
}