; Function Attrs: nounwind uwtable
define dso_local ptr @min_join_parameterization(ptr noundef readnone captures(none) %0, ptr noundef %1, ptr noundef readonly captures(none) %2, ptr noundef readonly captures(none) %3) local_unnamed_addr #0 {
  %5 = getelementptr inbounds nuw i8, ptr %2, i64 104
  %6 = load ptr, ptr %5, align 8
  %7 = getelementptr inbounds nuw i8, ptr %3, i64 104
  %8 = load ptr, ptr %7, align 8
  %9 = tail call ptr @bms_union(ptr noundef %6, ptr noundef %8) #7
  %10 = tail call ptr @bms_del_members(ptr noundef %9, ptr noundef %1) #7
  ret ptr %10
}